; ModuleID = '29/247.c'
source_filename = "29/247.c"
target datalayout = "e-m:e-p270:32:32-p271:32:32-p272:64:64-i64:64-f80:128-n8:16:32:64-S128"
target triple = "x86_64-pc-linux-gnu"

@.str = private unnamed_addr constant [3 x i8] c"%d\00", align 1
@.str.1 = private unnamed_addr constant [7 x i8] c"2.000\0A\00", align 1
@.str.2 = private unnamed_addr constant [7 x i8] c"3.500\0A\00", align 1
@.str.3 = private unnamed_addr constant [6 x i8] c"%.3f\0A\00", align 1

; Function Attrs: noinline nounwind uwtable
define dso_local float @main() #0 {
  %1 = alloca [99 x float], align 16
  %2 = alloca [99 x float], align 16
  %3 = alloca [99 x float], align 16
  %4 = alloca i32, align 4
  %5 = alloca i32, align 4
  %6 = alloca [99 x i32], align 16
  %7 = alloca i32, align 4
  %8 = call i32 (i8*, ...) @__isoc99_scanf(i8* getelementptr inbounds ([3 x i8], [3 x i8]* @.str, i64 0, i64 0), i32* %7)
  %9 = getelementptr inbounds [99 x float], [99 x float]* %1, i64 0, i64 0
  store float 2.000000e+00, float* %9, align 16
  %10 = getelementptr inbounds [99 x float], [99 x float]* %1, i64 0, i64 1
  store float 3.000000e+00, float* %10, align 4
  %11 = getelementptr inbounds [99 x float], [99 x float]* %2, i64 0, i64 0
  store float 1.000000e+00, float* %11, align 16
  %12 = getelementptr inbounds [99 x float], [99 x float]* %2, i64 0, i64 1
  store float 2.000000e+00, float* %12, align 4
  store i32 0, i32* %5, align 4
  br label %13

13:                                               ; preds = %104, %0
  %14 = load i32, i32* %5, align 4
  %15 = load i32, i32* %7, align 4
  %16 = icmp slt i32 %14, %15
  br i1 %16, label %17, label %107

17:                                               ; preds = %13
  %18 = load i32, i32* %5, align 4
  %19 = sext i32 %18 to i64
  %20 = getelementptr inbounds [99 x i32], [99 x i32]* %6, i64 0, i64 %19
  %21 = call i32 (i8*, ...) @__isoc99_scanf(i8* getelementptr inbounds ([3 x i8], [3 x i8]* @.str, i64 0, i64 0), i32* %20)
  %22 = load i32, i32* %5, align 4
  %23 = sext i32 %22 to i64
  %24 = getelementptr inbounds [99 x i32], [99 x i32]* %6, i64 0, i64 %23
  %25 = load i32, i32* %24, align 4
  %26 = icmp eq i32 %25, 1
  br i1 %26, label %27, label %29

27:                                               ; preds = %17
  %28 = call i32 (i8*, ...) @printf(i8* getelementptr inbounds ([7 x i8], [7 x i8]* @.str.1, i64 0, i64 0))
  br label %103

29:                                               ; preds = %17
  %30 = load i32, i32* %5, align 4
  %31 = sext i32 %30 to i64
  %32 = getelementptr inbounds [99 x i32], [99 x i32]* %6, i64 0, i64 %31
  %33 = load i32, i32* %32, align 4
  %34 = icmp eq i32 %33, 2
  br i1 %34, label %35, label %37

35:                                               ; preds = %29
  %36 = call i32 (i8*, ...) @printf(i8* getelementptr inbounds ([7 x i8], [7 x i8]* @.str.2, i64 0, i64 0))
  br label %102

37:                                               ; preds = %29
  %38 = load i32, i32* %5, align 4
  %39 = sext i32 %38 to i64
  %40 = getelementptr inbounds [99 x float], [99 x float]* %3, i64 0, i64 %39
  store float 3.000000e+00, float* %40, align 4
  store i32 2, i32* %4, align 4
  br label %41

41:                                               ; preds = %91, %37
  %42 = load i32, i32* %4, align 4
  %43 = load i32, i32* %5, align 4
  %44 = sext i32 %43 to i64
  %45 = getelementptr inbounds [99 x i32], [99 x i32]* %6, i64 0, i64 %44
  %46 = load i32, i32* %45, align 4
  %47 = icmp slt i32 %42, %46
  br i1 %47, label %48, label %94

48:                                               ; preds = %41
  %49 = load i32, i32* %4, align 4
  %50 = sub nsw i32 %49, 1
  %51 = sext i32 %50 to i64
  %52 = getelementptr inbounds [99 x float], [99 x float]* %1, i64 0, i64 %51
  %53 = load float, float* %52, align 4
  %54 = load i32, i32* %4, align 4
  %55 = sub nsw i32 %54, 2
  %56 = sext i32 %55 to i64
  %57 = getelementptr inbounds [99 x float], [99 x float]* %1, i64 0, i64 %56
  %58 = load float, float* %57, align 4
  %59 = fadd float %53, %58
  %60 = load i32, i32* %4, align 4
  %61 = sext i32 %60 to i64
  %62 = getelementptr inbounds [99 x float], [99 x float]* %1, i64 0, i64 %61
  store float %59, float* %62, align 4
  %63 = load i32, i32* %4, align 4
  %64 = sub nsw i32 %63, 1
  %65 = sext i32 %64 to i64
  %66 = getelementptr inbounds [99 x float], [99 x float]* %2, i64 0, i64 %65
  %67 = load float, float* %66, align 4
  %68 = load i32, i32* %4, align 4
  %69 = sub nsw i32 %68, 2
  %70 = sext i32 %69 to i64
  %71 = getelementptr inbounds [99 x float], [99 x float]* %2, i64 0, i64 %70
  %72 = load float, float* %71, align 4
  %73 = fadd float %67, %72
  %74 = load i32, i32* %4, align 4
  %75 = sext i32 %74 to i64
  %76 = getelementptr inbounds [99 x float], [99 x float]* %2, i64 0, i64 %75
  store float %73, float* %76, align 4
  %77 = load i32, i32* %4, align 4
  %78 = sext i32 %77 to i64
  %79 = getelementptr inbounds [99 x float], [99 x float]* %1, i64 0, i64 %78
  %80 = load float, float* %79, align 4
  %81 = load i32, i32* %4, align 4
  %82 = sext i32 %81 to i64
  %83 = getelementptr inbounds [99 x float], [99 x float]* %2, i64 0, i64 %82
  %84 = load float, float* %83, align 4
  %85 = fdiv float %80, %84
  %86 = load i32, i32* %5, align 4
  %87 = sext i32 %86 to i64
  %88 = getelementptr inbounds [99 x float], [99 x float]* %3, i64 0, i64 %87
  %89 = load float, float* %88, align 4
  %90 = fadd float %89, %85
  store float %90, float* %88, align 4
  br label %91

91:                                               ; preds = %48
  %92 = load i32, i32* %4, align 4
  %93 = add nsw i32 %92, 1
  store i32 %93, i32* %4, align 4
  br label %41

94:                                               ; preds = %41
  %95 = load i32, i32* %5, align 4
  %96 = sext i32 %95 to i64
  %97 = getelementptr inbounds [99 x float], [99 x float]* %3, i64 0, i64 %96
  %98 = load float, float* %97, align 4
  %99 = fpext float %98 to double
  %100 = fadd double %99, 5.000000e-01
  %101 = call i32 (i8*, ...) @printf(i8* getelementptr inbounds ([6 x i8], [6 x i8]* @.str.3, i64 0, i64 0), double %100)
  br label %102

102:                                              ; preds = %94, %35
  br label %103

103:                                              ; preds = %102, %27
  br label %104

104:                                              ; preds = %103
  %105 = load i32, i32* %5, align 4
  %106 = add nsw i32 %105, 1
  store i32 %106, i32* %5, align 4
  br label %13

107:                                              ; preds = %13
  ret float 0.000000e+00
}

declare dso_local i32 @__isoc99_scanf(i8*, ...) #1

declare dso_local i32 @printf(i8*, ...) #1


!llvm.module.flags = !{!0}
!llvm.ident = !{!1}

!0 = !{i32 1, !"wchar_size", i32 4}
!1 = !{!"clang version 10.0.0-4ubuntu1 "}
